target datalayout = "e-m:e-p270:32:32-p271:32:32-p272:64:64-i64:64-i128:128-f80:128-n8:16:32:64-S128"
target triple = "x86_64-pc-linux-gnu"

%struct._lv_bar_t = type { %struct._lv_obj_t, i32, i32, i32, i32, %struct.lv_area_t, i8, %struct._lv_bar_anim_t, %struct._lv_bar_anim_t, i8 }
%struct._lv_obj_t = type { ptr, ptr, ptr, ptr, ptr, %struct.lv_area_t, i32, i16, i16 }
%struct.lv_area_t = type { i32, i32, i32, i32 }
%struct._lv_bar_anim_t = type { ptr, i32, i32, i32 }

; Function Attrs: nounwind uwtable
define void @lv_bar_set_start_value(ptr noundef %0, i32 noundef %1, i32 noundef %2) #0 {
  %4 = alloca ptr, align 8
  %5 = alloca i32, align 4
  %6 = alloca i32, align 4
  %7 = alloca ptr, align 8
  %8 = alloca i32, align 4
  store ptr %0, ptr %4, align 8, !tbaa !3
  store i32 %1, ptr %5, align 4, !tbaa !23
  store i32 %2, ptr %6, align 4, !tbaa !23
  br label %9

9:                                                ; preds = %3
  br label %10

10:                                               ; preds = %9
  call void @llvm.lifetime.start.p0(i64 8, ptr %7) #5
  %11 = load ptr, ptr %4, align 8, !tbaa !3
  store ptr %11, ptr %7, align 8, !tbaa !3
  %12 = load ptr, ptr %7, align 8, !tbaa !3
  %13 = getelementptr inbounds nuw %struct._lv_bar_t, ptr %12, i32 0, i32 9
  %14 = load i8, ptr %13, align 8
  %15 = and i8 %14, 7
  %16 = zext i8 %15 to i32
  %17 = icmp ne i32 %16, 2
  br i1 %17, label %18, label %19

18:                                               ; preds = %10
  store i32 1, ptr %8, align 4
  br label %84

19:                                               ; preds = %10
  %20 = load ptr, ptr %7, align 8, !tbaa !3
  %21 = getelementptr inbounds nuw %struct._lv_bar_t, ptr %20, i32 0, i32 2
  %22 = load i32, ptr %21, align 4, !tbaa !7
  %23 = load i32, ptr %5, align 4, !tbaa !23
  %24 = load ptr, ptr %7, align 8, !tbaa !3
  %25 = getelementptr inbounds nuw %struct._lv_bar_t, ptr %24, i32 0, i32 3
  %26 = load i32, ptr %25, align 8, !tbaa !15
  %27 = icmp slt i32 %23, %26
  br i1 %27, label %28, label %30

28:                                               ; preds = %19
  %29 = load i32, ptr %5, align 4, !tbaa !23
  br label %34

30:                                               ; preds = %19
  %31 = load ptr, ptr %7, align 8, !tbaa !3
  %32 = getelementptr inbounds nuw %struct._lv_bar_t, ptr %31, i32 0, i32 3
  %33 = load i32, ptr %32, align 8, !tbaa !15
  br label %34

34:                                               ; preds = %30, %28
  %35 = phi i32 [ %29, %28 ], [ %33, %30 ]
  %36 = icmp sgt i32 %22, %35
  br i1 %36, label %37, label %41

37:                                               ; preds = %34
  %38 = load ptr, ptr %7, align 8, !tbaa !3
  %39 = getelementptr inbounds nuw %struct._lv_bar_t, ptr %38, i32 0, i32 2
  %40 = load i32, ptr %39, align 4, !tbaa !7
  br label %55

41:                                               ; preds = %34
  %42 = load i32, ptr %5, align 4, !tbaa !23
  %43 = load ptr, ptr %7, align 8, !tbaa !3
  %44 = getelementptr inbounds nuw %struct._lv_bar_t, ptr %43, i32 0, i32 3
  %45 = load i32, ptr %44, align 8, !tbaa !15
  %46 = icmp slt i32 %42, %45
  br i1 %46, label %47, label %49

47:                                               ; preds = %41
  %48 = load i32, ptr %5, align 4, !tbaa !23
  br label %53

49:                                               ; preds = %41
  %50 = load ptr, ptr %7, align 8, !tbaa !3
  %51 = getelementptr inbounds nuw %struct._lv_bar_t, ptr %50, i32 0, i32 3
  %52 = load i32, ptr %51, align 8, !tbaa !15
  br label %53

53:                                               ; preds = %49, %47
  %54 = phi i32 [ %48, %47 ], [ %52, %49 ]
  br label %55

55:                                               ; preds = %53, %37
  %56 = phi i32 [ %40, %37 ], [ %54, %53 ]
  store i32 %56, ptr %5, align 4, !tbaa !23
  %57 = load i32, ptr %5, align 4, !tbaa !23
  %58 = load ptr, ptr %7, align 8, !tbaa !3
  %59 = getelementptr inbounds nuw %struct._lv_bar_t, ptr %58, i32 0, i32 1
  %60 = load i32, ptr %59, align 8, !tbaa !17
  %61 = icmp sgt i32 %57, %60
  br i1 %61, label %62, label %66

62:                                               ; preds = %55
  %63 = load ptr, ptr %7, align 8, !tbaa !3
  %64 = getelementptr inbounds nuw %struct._lv_bar_t, ptr %63, i32 0, i32 1
  %65 = load i32, ptr %64, align 8, !tbaa !17
  br label %68

66:                                               ; preds = %55
  %67 = load i32, ptr %5, align 4, !tbaa !23
  br label %68

68:                                               ; preds = %66, %62
  %69 = phi i32 [ %65, %62 ], [ %67, %66 ]
  store i32 %69, ptr %5, align 4, !tbaa !23
  %70 = load ptr, ptr %7, align 8, !tbaa !3
  %71 = getelementptr inbounds nuw %struct._lv_bar_t, ptr %70, i32 0, i32 4
  %72 = load i32, ptr %71, align 4, !tbaa !16
  %73 = load i32, ptr %5, align 4, !tbaa !23
  %74 = icmp eq i32 %72, %73
  br i1 %74, label %75, label %76

75:                                               ; preds = %68
  store i32 1, ptr %8, align 4
  br label %84

76:                                               ; preds = %68
  %77 = load ptr, ptr %4, align 8, !tbaa !3
  %78 = load i32, ptr %5, align 4, !tbaa !23
  %79 = load ptr, ptr %7, align 8, !tbaa !3
  %80 = getelementptr inbounds nuw %struct._lv_bar_t, ptr %79, i32 0, i32 4
  %81 = load ptr, ptr %7, align 8, !tbaa !3
  %82 = getelementptr inbounds nuw %struct._lv_bar_t, ptr %81, i32 0, i32 8
  %83 = load i32, ptr %6, align 4, !tbaa !23
  call void @lv_bar_set_value_with_anim(ptr noundef %77, i32 noundef %78, ptr noundef %80, ptr noundef %82, i32 noundef %83)
  store i32 0, ptr %8, align 4
  br label %84

84:                                               ; preds = %76, %75, %18
  call void @llvm.lifetime.end.p0(i64 8, ptr %7) #5
  %85 = load i32, ptr %8, align 4
  switch i32 %85, label %87 [
    i32 0, label %86
    i32 1, label %86
  ]

86:                                               ; preds = %84, %84
  ret void

87:                                               ; preds = %84
  unreachable
}