; Function Attrs: nounwind uwtable
define void @lv_bar_set_start_value(ptr noundef %0, i32 noundef %1, i32 noundef %2) local_unnamed_addr #0 {
  %4 = getelementptr inbounds nuw i8, ptr %0, i64 152
  %5 = load i8, ptr %4, align 8
  %6 = and i8 %5, 7
  %.not = icmp eq i8 %6, 2
  br i1 %.not, label %7, label %19

7:                                                ; preds = %3
  %8 = getelementptr inbounds nuw i8, ptr %0, i64 68
  %9 = load i32, ptr %8, align 4, !tbaa !3
  %10 = getelementptr inbounds nuw i8, ptr %0, i64 72
  %11 = load i32, ptr %10, align 8, !tbaa !14
  %. = tail call i32 @llvm.smin.i32(i32 %1, i32 %11)
  %spec.select = tail call i32 @llvm.smax.i32(i32 %9, i32 %.)
  %12 = getelementptr inbounds nuw i8, ptr %0, i64 64
  %13 = load i32, ptr %12, align 8, !tbaa !15
  %.28 = tail call i32 @llvm.smin.i32(i32 %spec.select, i32 %13)
  %14 = getelementptr inbounds nuw i8, ptr %0, i64 76
  %15 = load i32, ptr %14, align 4, !tbaa !21
  %16 = icmp eq i32 %15, %.28
  br i1 %16, label %19, label %17

17:                                               ; preds = %7
  %18 = getelementptr inbounds nuw i8, ptr %0, i64 128
  tail call fastcc void @lv_bar_set_value_with_anim(ptr noundef nonnull %0, i32 noundef %.28, ptr noundef nonnull %14, ptr noundef nonnull %18, i32 noundef %2)
  br label %19

19:                                               ; preds = %7, %3, %17
  ret void
}